target datalayout = "e-m:e-p270:32:32-p271:32:32-p272:64:64-i64:64-i128:128-f80:128-n8:16:32:64-S128"
target triple = "x86_64-unknown-linux-gnu"

%struct.btOverlapCallback = type { ptr }
%class.RemovePairCallback.10 = type { %struct.btOverlapCallback, ptr }

@_ZTV17btOverlapCallback = linkonce_odr dso_local unnamed_addr constant { [5 x ptr] } { [5 x ptr] [ptr null, ptr @_ZTI17btOverlapCallback, ptr @_ZN17btOverlapCallbackD2Ev, ptr @_ZN17btOverlapCallbackD0Ev, ptr @__cxa_pure_virtual] }, comdat, align 8

; Function Attrs: mustprogress nounwind uwtable
define linkonce_odr dso_local void @_ZN17btOverlapCallbackD2Ev(ptr noundef nonnull align 8 dereferenceable(8) %this) unnamed_addr #1 comdat align 2 {
entry:
  %this.addr = alloca ptr, align 8
  store ptr %this, ptr %this.addr, align 8
  ret void
}

; Function Attrs: mustprogress nounwind uwtable
define linkonce_odr dso_local void @_ZN17btOverlapCallbackC2Ev(ptr noundef nonnull align 8 dereferenceable(8) %this) unnamed_addr #1 comdat align 2 {
entry:
  %this.addr = alloca ptr, align 8
  store ptr %this, ptr %this.addr, align 8
  %this1 = load ptr, ptr %this.addr, align 8
  store ptr getelementptr inbounds ({ [5 x ptr] }, ptr @_ZTV17btOverlapCallback, i32 0, i32 0, i32 2), ptr %this1, align 8
  ret void
}

; Function Attrs: mustprogress nounwind uwtable
define internal void @_ZZN28btSortedOverlappingPairCache37removeOverlappingPairsContainingProxyEP17btBroadphaseProxyP12btDispatcherEN18RemovePairCallbackD2Ev(ptr noundef nonnull align 8 dereferenceable(16) %this) unnamed_addr #1 align 2 {
entry:
  %this.addr = alloca ptr, align 8
  store ptr %this, ptr %this.addr, align 8
  %this1 = load ptr, ptr %this.addr, align 8
  call void @_ZN17btOverlapCallbackD2Ev(ptr noundef nonnull align 8 dereferenceable(8) %this1) #10
  ret void
}

; Function Attrs: mustprogress nounwind uwtable
define internal void @_ZZN28btSortedOverlappingPairCache37removeOverlappingPairsContainingProxyEP17btBroadphaseProxyP12btDispatcherEN18RemovePairCallbackC2ES1_(ptr noundef nonnull align 8 dereferenceable(16) %this, ptr noundef %obsoleteProxy) unnamed_addr #1 align 2 {
entry:
  %this.addr = alloca ptr, align 8
  %obsoleteProxy.addr = alloca ptr, align 8
  store ptr %this, ptr %this.addr, align 8
  store ptr %obsoleteProxy, ptr %obsoleteProxy.addr, align 8
  %this1 = load ptr, ptr %this.addr, align 8
  call void @_ZN17btOverlapCallbackC2Ev(ptr noundef nonnull align 8 dereferenceable(8) %this1) #10
  store ptr getelementptr inbounds ({ [5 x ptr] }, ptr @_ZTVZN28btSortedOverlappingPairCache37removeOverlappingPairsContainingProxyEP17btBroadphaseProxyP12btDispatcherE18RemovePairCallback, i32 0, i32 0, i32 2), ptr %this1, align 8
  %m_obsoleteProxy = getelementptr inbounds %class.RemovePairCallback.10, ptr %this1, i32 0, i32 1
  %0 = load ptr, ptr %obsoleteProxy.addr, align 8
  store ptr %0, ptr %m_obsoleteProxy, align 8
  ret void
}

; Function Attrs: mustprogress uwtable
define dso_local void @_ZN28btSortedOverlappingPairCache37removeOverlappingPairsContainingProxyEP17btBroadphaseProxyP12btDispatcher(ptr noundef nonnull align 8 dereferenceable(64) %this, ptr noundef %proxy, ptr noundef %dispatcher) unnamed_addr #2 align 2 personality ptr @__gxx_personality_v0 {
entry:
  %this.addr = alloca ptr, align 8
  %proxy.addr = alloca ptr, align 8
  %dispatcher.addr = alloca ptr, align 8
  %removeCallback = alloca %class.RemovePairCallback.10, align 8
  %exn.slot = alloca ptr, align 8
  %ehselector.slot = alloca i32, align 4
  store ptr %this, ptr %this.addr, align 8
  store ptr %proxy, ptr %proxy.addr, align 8
  store ptr %dispatcher, ptr %dispatcher.addr, align 8
  %this1 = load ptr, ptr %this.addr, align 8
  %0 = load ptr, ptr %proxy.addr, align 8
  call void @_ZZN28btSortedOverlappingPairCache37removeOverlappingPairsContainingProxyEP17btBroadphaseProxyP12btDispatcherEN18RemovePairCallbackC2ES1_(ptr noundef nonnull align 8 dereferenceable(16) %removeCallback, ptr noundef %0)
  %1 = load ptr, ptr %dispatcher.addr, align 8
  %vtable = load ptr, ptr %this1, align 8
  %vfn = getelementptr inbounds ptr, ptr %vtable, i64 14
  %2 = load ptr, ptr %vfn, align 8
  invoke void %2(ptr noundef nonnull align 8 dereferenceable(64) %this1, ptr noundef %removeCallback, ptr noundef %1)
          to label %invoke.cont unwind label %lpad

invoke.cont:                                      ; preds = %entry
  call void @_ZZN28btSortedOverlappingPairCache37removeOverlappingPairsContainingProxyEP17btBroadphaseProxyP12btDispatcherEN18RemovePairCallbackD2Ev(ptr noundef nonnull align 8 dereferenceable(16) %removeCallback) #10
  ret void

lpad:                                             ; preds = %entry
  %3 = landingpad { ptr, i32 }
          cleanup
  %4 = extractvalue { ptr, i32 } %3, 0
  store ptr %4, ptr %exn.slot, align 8
  %5 = extractvalue { ptr, i32 } %3, 1
  store i32 %5, ptr %ehselector.slot, align 4
  call void @_ZZN28btSortedOverlappingPairCache37removeOverlappingPairsContainingProxyEP17btBroadphaseProxyP12btDispatcherEN18RemovePairCallbackD2Ev(ptr noundef nonnull align 8 dereferenceable(16) %removeCallback) #10
  br label %eh.resume

eh.resume:                                        ; preds = %lpad
  %exn = load ptr, ptr %exn.slot, align 8
  %sel = load i32, ptr %ehselector.slot, align 4
  %lpad.val = insertvalue { ptr, i32 } poison, ptr %exn, 0
  %lpad.val2 = insertvalue { ptr, i32 } %lpad.val, i32 %sel, 1
  resume { ptr, i32 } %lpad.val2
}