; Function Attrs: mustprogress uwtable
define dso_local void @_ZN28btSortedOverlappingPairCache37removeOverlappingPairsContainingProxyEP17btBroadphaseProxyP12btDispatcher(ptr noundef nonnull align 8 dereferenceable(64) %this, ptr noundef %proxy, ptr noundef %dispatcher) unnamed_addr #0 align 2 personality ptr @__gxx_personality_v0 {
entry:
  %removeCallback = alloca %class.RemovePairCallback.10, align 8
  store ptr getelementptr inbounds ({ [5 x ptr] }, ptr @_ZTVZN28btSortedOverlappingPairCache37removeOverlappingPairsContainingProxyEP17btBroadphaseProxyP12btDispatcherE18RemovePairCallback, i64 0, i32 0, i64 2), ptr %removeCallback, align 8
  %m_obsoleteProxy.i = getelementptr inbounds i8, ptr %removeCallback, i64 8
  store ptr %proxy, ptr %m_obsoleteProxy.i, align 8
  %vtable = load ptr, ptr %this, align 8
  %vfn = getelementptr inbounds i8, ptr %vtable, i64 112
  %0 = load ptr, ptr %vfn, align 8
  call void %0(ptr noundef nonnull align 8 dereferenceable(64) %this, ptr noundef nonnull %removeCallback, ptr noundef %dispatcher)
  ret void
}